target datalayout = "e-m:e-p270:32:32-p271:32:32-p272:64:64-i64:64-i128:128-f80:128-n8:16:32:64-S128"
target triple = "x86_64-pc-linux-gnu"

%"class.glslang::TQualifier" = type <{ ptr, i64, i8, [3 x i8], i32, i32, i64, i64, i8, i8, i8, i8, i8, [3 x i8], i32, i8, i8, i8, i8, i32, ptr, i8, i8, [6 x i8] }>

; Function Attrs: mustprogress nounwind uwtable
define noundef zeroext i1 @_ZN7glslang13TIntermediate15isIoResizeArrayERKNS_5TTypeE11EShLanguage(ptr noundef nonnull align 8 dereferenceable(152) %0, i32 noundef %1) #0 align 2 {
  %3 = alloca ptr, align 8
  %4 = alloca i32, align 4
  store ptr %0, ptr %3, align 8
  store i32 %1, ptr %4, align 4
  %5 = load ptr, ptr %3, align 8
  %6 = load ptr, ptr %5, align 8
  %7 = getelementptr inbounds ptr, ptr %6, i64 29
  %8 = load ptr, ptr %7, align 8
  %9 = call noundef zeroext i1 %8(ptr noundef nonnull align 8 dereferenceable(152) %5)
  br i1 %9, label %10, label %140

10:                                               ; preds = %2
  %11 = load i32, ptr %4, align 4
  %12 = icmp eq i32 %11, 3
  br i1 %12, label %13, label %24

13:                                               ; preds = %10
  %14 = load ptr, ptr %3, align 8
  %15 = load ptr, ptr %14, align 8
  %16 = getelementptr inbounds ptr, ptr %15, i64 11
  %17 = load ptr, ptr %16, align 8
  %18 = call noundef nonnull align 8 dereferenceable(80) ptr %17(ptr noundef nonnull align 8 dereferenceable(152) %14)
  %19 = getelementptr inbounds %"class.glslang::TQualifier", ptr %18, i32 0, i32 1
  %20 = load i64, ptr %19, align 8
  %21 = and i64 %20, 127
  %22 = trunc i64 %21 to i32
  %23 = icmp eq i32 %22, 3
  br i1 %23, label %138, label %24

24:                                               ; preds = %13, %10
  %25 = load i32, ptr %4, align 4
  %26 = icmp eq i32 %25, 1
  br i1 %26, label %27, label %60

27:                                               ; preds = %24
  %28 = load ptr, ptr %3, align 8
  %29 = load ptr, ptr %28, align 8
  %30 = getelementptr inbounds ptr, ptr %29, i64 11
  %31 = load ptr, ptr %30, align 8
  %32 = call noundef nonnull align 8 dereferenceable(80) ptr %31(ptr noundef nonnull align 8 dereferenceable(152) %28)
  %33 = getelementptr inbounds %"class.glslang::TQualifier", ptr %32, i32 0, i32 1
  %34 = load i64, ptr %33, align 8
  %35 = and i64 %34, 127
  %36 = trunc i64 %35 to i32
  %37 = icmp eq i32 %36, 3
  br i1 %37, label %49, label %38

38:                                               ; preds = %27
  %39 = load ptr, ptr %3, align 8
  %40 = load ptr, ptr %39, align 8
  %41 = getelementptr inbounds ptr, ptr %40, i64 11
  %42 = load ptr, ptr %41, align 8
  %43 = call noundef nonnull align 8 dereferenceable(80) ptr %42(ptr noundef nonnull align 8 dereferenceable(152) %39)
  %44 = getelementptr inbounds %"class.glslang::TQualifier", ptr %43, i32 0, i32 1
  %45 = load i64, ptr %44, align 8
  %46 = and i64 %45, 127
  %47 = trunc i64 %46 to i32
  %48 = icmp eq i32 %47, 4
  br i1 %48, label %49, label %60

49:                                               ; preds = %38, %27
  %50 = load ptr, ptr %3, align 8
  %51 = load ptr, ptr %50, align 8
  %52 = getelementptr inbounds ptr, ptr %51, i64 11
  %53 = load ptr, ptr %52, align 8
  %54 = call noundef nonnull align 8 dereferenceable(80) ptr %53(ptr noundef nonnull align 8 dereferenceable(152) %50)
  %55 = getelementptr inbounds %"class.glslang::TQualifier", ptr %54, i32 0, i32 1
  %56 = load i64, ptr %55, align 8
  %57 = lshr i64 %56, 44
  %58 = and i64 %57, 1
  %59 = trunc i64 %58 to i1
  br i1 %59, label %60, label %138

60:                                               ; preds = %49, %38, %24
  %61 = load i32, ptr %4, align 4
  %62 = icmp eq i32 %61, 2
  br i1 %62, label %63, label %74

63:                                               ; preds = %60
  %64 = load ptr, ptr %3, align 8
  %65 = load ptr, ptr %64, align 8
  %66 = getelementptr inbounds ptr, ptr %65, i64 11
  %67 = load ptr, ptr %66, align 8
  %68 = call noundef nonnull align 8 dereferenceable(80) ptr %67(ptr noundef nonnull align 8 dereferenceable(152) %64)
  %69 = getelementptr inbounds %"class.glslang::TQualifier", ptr %68, i32 0, i32 1
  %70 = load i64, ptr %69, align 8
  %71 = and i64 %70, 127
  %72 = trunc i64 %71 to i32
  %73 = icmp eq i32 %72, 3
  br i1 %73, label %138, label %74

74:                                               ; preds = %63, %60
  %75 = load i32, ptr %4, align 4
  %76 = icmp eq i32 %75, 4
  br i1 %76, label %77, label %110

77:                                               ; preds = %74
  %78 = load ptr, ptr %3, align 8
  %79 = load ptr, ptr %78, align 8
  %80 = getelementptr inbounds ptr, ptr %79, i64 11
  %81 = load ptr, ptr %80, align 8
  %82 = call noundef nonnull align 8 dereferenceable(80) ptr %81(ptr noundef nonnull align 8 dereferenceable(152) %78)
  %83 = getelementptr inbounds %"class.glslang::TQualifier", ptr %82, i32 0, i32 1
  %84 = load i64, ptr %83, align 8
  %85 = and i64 %84, 127
  %86 = trunc i64 %85 to i32
  %87 = icmp eq i32 %86, 3
  br i1 %87, label %88, label %110

88:                                               ; preds = %77
  %89 = load ptr, ptr %3, align 8
  %90 = load ptr, ptr %89, align 8
  %91 = getelementptr inbounds ptr, ptr %90, i64 11
  %92 = load ptr, ptr %91, align 8
  %93 = call noundef nonnull align 8 dereferenceable(80) ptr %92(ptr noundef nonnull align 8 dereferenceable(152) %89)
  %94 = getelementptr inbounds %"class.glslang::TQualifier", ptr %93, i32 0, i32 1
  %95 = load i64, ptr %94, align 8
  %96 = lshr i64 %95, 39
  %97 = and i64 %96, 1
  %98 = trunc i64 %97 to i1
  br i1 %98, label %138, label %99

99:                                               ; preds = %88
  %100 = load ptr, ptr %3, align 8
  %101 = load ptr, ptr %100, align 8
  %102 = getelementptr inbounds ptr, ptr %101, i64 11
  %103 = load ptr, ptr %102, align 8
  %104 = call noundef nonnull align 8 dereferenceable(80) ptr %103(ptr noundef nonnull align 8 dereferenceable(152) %100)
  %105 = getelementptr inbounds %"class.glslang::TQualifier", ptr %104, i32 0, i32 1
  %106 = load i64, ptr %105, align 8
  %107 = lshr i64 %106, 40
  %108 = and i64 %107, 1
  %109 = trunc i64 %108 to i1
  br i1 %109, label %138, label %110

110:                                              ; preds = %99, %77, %74
  %111 = load i32, ptr %4, align 4
  %112 = icmp eq i32 %111, 13
  br i1 %112, label %113, label %136

113:                                              ; preds = %110
  %114 = load ptr, ptr %3, align 8
  %115 = load ptr, ptr %114, align 8
  %116 = getelementptr inbounds ptr, ptr %115, i64 11
  %117 = load ptr, ptr %116, align 8
  %118 = call noundef nonnull align 8 dereferenceable(80) ptr %117(ptr noundef nonnull align 8 dereferenceable(152) %114)
  %119 = getelementptr inbounds %"class.glslang::TQualifier", ptr %118, i32 0, i32 1
  %120 = load i64, ptr %119, align 8
  %121 = and i64 %120, 127
  %122 = trunc i64 %121 to i32
  %123 = icmp eq i32 %122, 4
  br i1 %123, label %124, label %136

124:                                              ; preds = %113
  %125 = load ptr, ptr %3, align 8
  %126 = load ptr, ptr %125, align 8
  %127 = getelementptr inbounds ptr, ptr %126, i64 11
  %128 = load ptr, ptr %127, align 8
  %129 = call noundef nonnull align 8 dereferenceable(80) ptr %128(ptr noundef nonnull align 8 dereferenceable(152) %125)
  %130 = getelementptr inbounds %"class.glslang::TQualifier", ptr %129, i32 0, i32 1
  %131 = load i64, ptr %130, align 8
  %132 = lshr i64 %131, 43
  %133 = and i64 %132, 1
  %134 = trunc i64 %133 to i1
  %135 = xor i1 %134, true
  br label %136

136:                                              ; preds = %124, %113, %110
  %137 = phi i1 [ false, %113 ], [ false, %110 ], [ %135, %124 ]
  br label %138

138:                                              ; preds = %136, %99, %88, %63, %49, %13
  %139 = phi i1 [ true, %99 ], [ true, %88 ], [ true, %63 ], [ true, %49 ], [ true, %13 ], [ %137, %136 ]
  br label %140

140:                                              ; preds = %138, %2
  %141 = phi i1 [ false, %2 ], [ %139, %138 ]
  ret i1 %141
}