; Function Attrs: mustprogress nounwind uwtable
define noundef zeroext i1 @_ZN7glslang13TIntermediate15isIoResizeArrayERKNS_5TTypeE11EShLanguage(ptr noundef nonnull align 8 dereferenceable(152) %0, i32 noundef %1) local_unnamed_addr #0 align 2 {
  %3 = load ptr, ptr %0, align 8
  %4 = getelementptr inbounds i8, ptr %3, i64 232
  %5 = load ptr, ptr %4, align 8
  %6 = tail call noundef zeroext i1 %5(ptr noundef nonnull align 8 dereferenceable(152) %0) #18
  br i1 %6, label %7, label %96

7:                                                ; preds = %2
  switch i32 %1, label %96 [
    i32 3, label %8
    i32 1, label %17
    i32 2, label %44
    i32 4, label %53
    i32 13, label %79
  ]

8:                                                ; preds = %7
  %9 = load ptr, ptr %0, align 8
  %10 = getelementptr inbounds i8, ptr %9, i64 88
  %11 = load ptr, ptr %10, align 8
  %12 = tail call noundef nonnull align 8 dereferenceable(80) ptr %11(ptr noundef nonnull align 8 dereferenceable(152) %0) #18
  %13 = getelementptr inbounds i8, ptr %12, i64 8
  %14 = load i64, ptr %13, align 8
  %15 = and i64 %14, 127
  %16 = icmp eq i64 %15, 3
  br label %96

17:                                               ; preds = %7
  %18 = load ptr, ptr %0, align 8
  %19 = getelementptr inbounds i8, ptr %18, i64 88
  %20 = load ptr, ptr %19, align 8
  %21 = tail call noundef nonnull align 8 dereferenceable(80) ptr %20(ptr noundef nonnull align 8 dereferenceable(152) %0) #18
  %22 = getelementptr inbounds i8, ptr %21, i64 8
  %23 = load i64, ptr %22, align 8
  %24 = and i64 %23, 127
  %25 = icmp eq i64 %24, 3
  br i1 %25, label %35, label %26

26:                                               ; preds = %17
  %27 = load ptr, ptr %0, align 8
  %28 = getelementptr inbounds i8, ptr %27, i64 88
  %29 = load ptr, ptr %28, align 8
  %30 = tail call noundef nonnull align 8 dereferenceable(80) ptr %29(ptr noundef nonnull align 8 dereferenceable(152) %0) #18
  %31 = getelementptr inbounds i8, ptr %30, i64 8
  %32 = load i64, ptr %31, align 8
  %33 = and i64 %32, 127
  %34 = icmp eq i64 %33, 4
  br i1 %34, label %35, label %43

35:                                               ; preds = %26, %17
  %36 = load ptr, ptr %0, align 8
  %37 = getelementptr inbounds i8, ptr %36, i64 88
  %38 = load ptr, ptr %37, align 8
  %39 = tail call noundef nonnull align 8 dereferenceable(80) ptr %38(ptr noundef nonnull align 8 dereferenceable(152) %0) #18
  %40 = getelementptr inbounds i8, ptr %39, i64 8
  %41 = load i64, ptr %40, align 8
  %42 = and i64 %41, 17592186044416
  %.not = icmp eq i64 %42, 0
  br i1 %.not, label %96, label %43

43:                                               ; preds = %35, %26
  br label %96

44:                                               ; preds = %7
  %45 = load ptr, ptr %0, align 8
  %46 = getelementptr inbounds i8, ptr %45, i64 88
  %47 = load ptr, ptr %46, align 8
  %48 = tail call noundef nonnull align 8 dereferenceable(80) ptr %47(ptr noundef nonnull align 8 dereferenceable(152) %0) #18
  %49 = getelementptr inbounds i8, ptr %48, i64 8
  %50 = load i64, ptr %49, align 8
  %51 = and i64 %50, 127
  %52 = icmp eq i64 %51, 3
  br label %96

53:                                               ; preds = %7
  %54 = load ptr, ptr %0, align 8
  %55 = getelementptr inbounds i8, ptr %54, i64 88
  %56 = load ptr, ptr %55, align 8
  %57 = tail call noundef nonnull align 8 dereferenceable(80) ptr %56(ptr noundef nonnull align 8 dereferenceable(152) %0) #18
  %58 = getelementptr inbounds i8, ptr %57, i64 8
  %59 = load i64, ptr %58, align 8
  %60 = and i64 %59, 127
  %61 = icmp eq i64 %60, 3
  br i1 %61, label %62, label %78

62:                                               ; preds = %53
  %63 = load ptr, ptr %0, align 8
  %64 = getelementptr inbounds i8, ptr %63, i64 88
  %65 = load ptr, ptr %64, align 8
  %66 = tail call noundef nonnull align 8 dereferenceable(80) ptr %65(ptr noundef nonnull align 8 dereferenceable(152) %0) #18
  %67 = getelementptr inbounds i8, ptr %66, i64 8
  %68 = load i64, ptr %67, align 8
  %69 = and i64 %68, 549755813888
  %.not15 = icmp eq i64 %69, 0
  br i1 %.not15, label %70, label %96

70:                                               ; preds = %62
  %71 = load ptr, ptr %0, align 8
  %72 = getelementptr inbounds i8, ptr %71, i64 88
  %73 = load ptr, ptr %72, align 8
  %74 = tail call noundef nonnull align 8 dereferenceable(80) ptr %73(ptr noundef nonnull align 8 dereferenceable(152) %0) #18
  %75 = getelementptr inbounds i8, ptr %74, i64 8
  %76 = load i64, ptr %75, align 8
  %77 = and i64 %76, 1099511627776
  %.not16 = icmp eq i64 %77, 0
  br i1 %.not16, label %78, label %96

78:                                               ; preds = %70, %53
  br label %96

79:                                               ; preds = %7
  %80 = load ptr, ptr %0, align 8
  %81 = getelementptr inbounds i8, ptr %80, i64 88
  %82 = load ptr, ptr %81, align 8
  %83 = tail call noundef nonnull align 8 dereferenceable(80) ptr %82(ptr noundef nonnull align 8 dereferenceable(152) %0) #18
  %84 = getelementptr inbounds i8, ptr %83, i64 8
  %85 = load i64, ptr %84, align 8
  %86 = and i64 %85, 127
  %87 = icmp eq i64 %86, 4
  br i1 %87, label %88, label %96

88:                                               ; preds = %79
  %89 = load ptr, ptr %0, align 8
  %90 = getelementptr inbounds i8, ptr %89, i64 88
  %91 = load ptr, ptr %90, align 8
  %92 = tail call noundef nonnull align 8 dereferenceable(80) ptr %91(ptr noundef nonnull align 8 dereferenceable(152) %0) #18
  %93 = getelementptr inbounds i8, ptr %92, i64 8
  %94 = load i64, ptr %93, align 8
  %95 = and i64 %94, 8796093022208
  %.not17 = icmp eq i64 %95, 0
  br label %96

96:                                               ; preds = %44, %8, %78, %43, %7, %35, %62, %70, %88, %79, %2
  %97 = phi i1 [ false, %2 ], [ true, %70 ], [ true, %62 ], [ true, %35 ], [ false, %79 ], [ false, %78 ], [ %.not17, %88 ], [ false, %43 ], [ false, %7 ], [ %16, %8 ], [ %52, %44 ]
  ret i1 %97
}